; Function Attrs: mustprogress uwtable
define dso_local void @_ZNK3net17QuicNegotiableTag18ToHandshakeMessageEPNS_22CryptoHandshakeMessageE(ptr noundef nonnull align 8 dereferenceable(52) %this, ptr noundef %out) unnamed_addr #0 align 2 {
entry:
  %negotiated_.i = getelementptr inbounds i8, ptr %this, i64 16
  %0 = load i8, ptr %negotiated_.i, align 8
  %1 = and i8 %0, 1
  %tobool.i.not = icmp eq i8 %1, 0
  %tag_2 = getelementptr inbounds i8, ptr %this, i64 8
  %2 = load i32, ptr %tag_2, align 8
  br i1 %tobool.i.not, label %if.else, label %if.then

if.then:                                          ; preds = %entry
  %negotiated_tag_ = getelementptr inbounds i8, ptr %this, i64 20
  tail call void @_ZN3net22CryptoHandshakeMessage8SetValueIjEEvjRKT_(ptr noundef nonnull align 8 dereferenceable(72) %out, i32 noundef %2, ptr noundef nonnull align 4 dereferenceable(4) %negotiated_tag_)
  br label %if.end

if.else:                                          ; preds = %entry
  %possible_values_ = getelementptr inbounds i8, ptr %this, i64 24
  tail call void @_ZN3net22CryptoHandshakeMessage9SetVectorIjEEvjRKSt6vectorIT_SaIS3_EE(ptr noundef nonnull align 8 dereferenceable(72) %out, i32 noundef %2, ptr noundef nonnull align 8 dereferenceable(24) %possible_values_)
  br label %if.end

if.end:                                           ; preds = %if.else, %if.then
  ret void
}